target datalayout = "e-m:e-p270:32:32-p271:32:32-p272:64:64-i64:64-i128:128-f80:128-n8:16:32:64-S128"
target triple = "x86_64-pc-linux-gnu"

; Function Attrs: nounwind uwtable
define internal void @sum2_s32(ptr noundef %0, ptr noundef %1, ptr noundef %2, ptr noundef %3, i32 noundef %4, i32 noundef %5, i32 noundef %6) #0 {
  %8 = alloca ptr, align 8
  %9 = alloca ptr, align 8
  %10 = alloca ptr, align 8
  %11 = alloca ptr, align 8
  %12 = alloca i32, align 4
  %13 = alloca i32, align 4
  %14 = alloca i32, align 4
  %15 = alloca i32, align 4
  %16 = alloca i64, align 8
  %17 = alloca i64, align 8
  store ptr %0, ptr %8, align 8, !tbaa !86
  store ptr %1, ptr %9, align 8, !tbaa !86
  store ptr %2, ptr %10, align 8, !tbaa !86
  store ptr %3, ptr %11, align 8, !tbaa !86
  store i32 %4, ptr %12, align 4, !tbaa !11
  store i32 %5, ptr %13, align 4, !tbaa !11
  store i32 %6, ptr %14, align 4, !tbaa !11
  call void @llvm.lifetime.start.p0(i64 4, ptr %15) #9
  call void @llvm.lifetime.start.p0(i64 8, ptr %16) #9
  %18 = load ptr, ptr %11, align 8, !tbaa !86
  %19 = load i32, ptr %12, align 4, !tbaa !11
  %20 = sext i32 %19 to i64
  %21 = getelementptr inbounds i32, ptr %18, i64 %20
  %22 = load i32, ptr %21, align 4, !tbaa !11
  %23 = sext i32 %22 to i64
  store i64 %23, ptr %16, align 8, !tbaa !37
  call void @llvm.lifetime.start.p0(i64 8, ptr %17) #9
  %24 = load ptr, ptr %11, align 8, !tbaa !86
  %25 = load i32, ptr %13, align 4, !tbaa !11
  %26 = sext i32 %25 to i64
  %27 = getelementptr inbounds i32, ptr %24, i64 %26
  %28 = load i32, ptr %27, align 4, !tbaa !11
  %29 = sext i32 %28 to i64
  store i64 %29, ptr %17, align 8, !tbaa !37
  store i32 0, ptr %15, align 4, !tbaa !11
  br label %30

30:                                               ; preds = %59, %7
  %31 = load i32, ptr %15, align 4, !tbaa !11
  %32 = load i32, ptr %14, align 4, !tbaa !11
  %33 = icmp slt i32 %31, %32
  br i1 %33, label %34, label %62

34:                                               ; preds = %30
  %35 = load i64, ptr %16, align 8, !tbaa !37
  %36 = load ptr, ptr %9, align 8, !tbaa !86
  %37 = load i32, ptr %15, align 4, !tbaa !11
  %38 = sext i32 %37 to i64
  %39 = getelementptr inbounds i32, ptr %36, i64 %38
  %40 = load i32, ptr %39, align 4, !tbaa !11
  %41 = sext i32 %40 to i64
  %42 = mul nsw i64 %35, %41
  %43 = load i64, ptr %17, align 8, !tbaa !37
  %44 = load ptr, ptr %10, align 8, !tbaa !86
  %45 = load i32, ptr %15, align 4, !tbaa !11
  %46 = sext i32 %45 to i64
  %47 = getelementptr inbounds i32, ptr %44, i64 %46
  %48 = load i32, ptr %47, align 4, !tbaa !11
  %49 = sext i32 %48 to i64
  %50 = mul nsw i64 %43, %49
  %51 = add nsw i64 %42, %50
  %52 = add nsw i64 %51, 16384
  %53 = ashr i64 %52, 15
  %54 = trunc i64 %53 to i32
  %55 = load ptr, ptr %8, align 8, !tbaa !86
  %56 = load i32, ptr %15, align 4, !tbaa !11
  %57 = sext i32 %56 to i64
  %58 = getelementptr inbounds i32, ptr %55, i64 %57
  store i32 %54, ptr %58, align 4, !tbaa !11
  br label %59

59:                                               ; preds = %34
  %60 = load i32, ptr %15, align 4, !tbaa !11
  %61 = add nsw i32 %60, 1
  store i32 %61, ptr %15, align 4, !tbaa !11
  br label %30, !llvm.loop !100

62:                                               ; preds = %30
  call void @llvm.lifetime.end.p0(i64 8, ptr %17) #9
  call void @llvm.lifetime.end.p0(i64 8, ptr %16) #9
  call void @llvm.lifetime.end.p0(i64 4, ptr %15) #9
  ret void
}