; Function Attrs: nofree norecurse nosync nounwind memory(argmem: readwrite) uwtable
define internal void @sum2_s32(ptr noundef writeonly captures(none) %0, ptr noundef readonly captures(none) %1, ptr noundef readonly captures(none) %2, ptr noundef readonly captures(none) %3, i32 noundef %4, i32 noundef %5, i32 noundef %6) #0 {
  %8 = sext i32 %4 to i64
  %9 = getelementptr inbounds i32, ptr %3, i64 %8
  %10 = load i32, ptr %9, align 4, !tbaa !34
  %11 = sext i32 %10 to i64
  %12 = sext i32 %5 to i64
  %13 = getelementptr inbounds i32, ptr %3, i64 %12
  %14 = load i32, ptr %13, align 4, !tbaa !34
  %15 = sext i32 %14 to i64
  %16 = icmp sgt i32 %6, 0
  br i1 %16, label %.lr.ph.preheader, label %._crit_edge

.lr.ph.preheader:                                 ; preds = %7
  %wide.trip.count = zext nneg i32 %6 to i64
  br label %.lr.ph

.lr.ph:                                           ; preds = %.lr.ph.preheader, %.lr.ph
  %indvars.iv = phi i64 [ 0, %.lr.ph.preheader ], [ %indvars.iv.next, %.lr.ph ]
  %17 = getelementptr inbounds nuw i32, ptr %1, i64 %indvars.iv
  %18 = load i32, ptr %17, align 4, !tbaa !34
  %19 = sext i32 %18 to i64
  %20 = mul nsw i64 %19, %11
  %21 = getelementptr inbounds nuw i32, ptr %2, i64 %indvars.iv
  %22 = load i32, ptr %21, align 4, !tbaa !34
  %23 = sext i32 %22 to i64
  %24 = mul nsw i64 %23, %15
  %25 = add nsw i64 %20, 16384
  %26 = add i64 %25, %24
  %27 = lshr i64 %26, 15
  %28 = trunc i64 %27 to i32
  %29 = getelementptr inbounds nuw i32, ptr %0, i64 %indvars.iv
  store i32 %28, ptr %29, align 4, !tbaa !34
  %indvars.iv.next = add nuw nsw i64 %indvars.iv, 1
  %exitcond.not = icmp eq i64 %indvars.iv.next, %wide.trip.count
  br i1 %exitcond.not, label %._crit_edge, label %.lr.ph, !llvm.loop !87

._crit_edge:                                      ; preds = %.lr.ph, %7
  ret void
}